
main.elf:     file format elf32-littleriscv

SYMBOL TABLE:
00010094 l    d  .text	00000000 .text
000104f8 l    d  .rodata	00000000 .rodata
00011500 l    d  .data	00000000 .data
00000000 l    d  .comment	00000000 .comment
00000000 l    d  .riscv.attributes	00000000 .riscv.attributes
00000000 l    df *ABS*	00000000 main.c
00011d00 g       *ABS*	00000000 __global_pointer$
00011500 g     O .data	000000d0 rom
000115d0 g       .data	00000000 __SDATA_BEGIN__
00010094 g     F .text	000001e4 rc5_en
00010278 g     F .text	000001f0 rc5_de
000115d0 g       .data	00000000 __BSS_END__
000115d0 g       .data	00000000 __bss_start
00010468 g     F .text	00000090 main
00011500 g       .data	00000000 __DATA_BEGIN__
000115d0 g       .data	00000000 _edata
000115d0 g       .data	00000000 _end



Disassembly of section .text:

00010094 <rc5_en>:
   10094:	fb010113          	add	sp,sp,-80
   10098:	04812623          	sw	s0,76(sp)
   1009c:	05010413          	add	s0,sp,80
   100a0:	faa42c23          	sw	a0,-72(s0)
   100a4:	fab42e23          	sw	a1,-68(s0)
   100a8:	fb842503          	lw	a0,-72(s0)
   100ac:	fbc42583          	lw	a1,-68(s0)
   100b0:	0005df13          	srl	t5,a1,0x0
   100b4:	00000f93          	li	t6,0
   100b8:	ffe42423          	sw	t5,-24(s0)
   100bc:	fff42623          	sw	t6,-20(s0)
   100c0:	fb842583          	lw	a1,-72(s0)
   100c4:	fff5f713          	and	a4,a1,-1
   100c8:	fbc42583          	lw	a1,-68(s0)
   100cc:	0005f793          	and	a5,a1,0
   100d0:	fee42023          	sw	a4,-32(s0)
   100d4:	fef42223          	sw	a5,-28(s0)
   100d8:	fc042c23          	sw	zero,-40(s0)
   100dc:	fc042a23          	sw	zero,-44(s0)
   100e0:	fc042823          	sw	zero,-48(s0)
   100e4:	fc042623          	sw	zero,-52(s0)
   100e8:	00100793          	li	a5,1
   100ec:	fcf42e23          	sw	a5,-36(s0)
   100f0:	1440006f          	j	10234 <rc5_en+0x1a0>
   100f4:	fe842703          	lw	a4,-24(s0)
   100f8:	fe042783          	lw	a5,-32(s0)
   100fc:	00f747b3          	xor	a5,a4,a5
   10100:	fcf42c23          	sw	a5,-40(s0)
   10104:	fe042783          	lw	a5,-32(s0)
   10108:	01f7f793          	and	a5,a5,31
   1010c:	fd842703          	lw	a4,-40(s0)
   10110:	00f71733          	sll	a4,a4,a5
   10114:	fe042783          	lw	a5,-32(s0)
   10118:	01f7f793          	and	a5,a5,31
   1011c:	02000593          	li	a1,32
   10120:	40f587b3          	sub	a5,a1,a5
   10124:	fd842583          	lw	a1,-40(s0)
   10128:	40f5d7b3          	sra	a5,a1,a5
   1012c:	00f767b3          	or	a5,a4,a5
   10130:	fcf42a23          	sw	a5,-44(s0)
   10134:	fd442783          	lw	a5,-44(s0)
   10138:	00078613          	mv	a2,a5
   1013c:	41f7d793          	sra	a5,a5,0x1f
   10140:	00078693          	mv	a3,a5
   10144:	fdc42783          	lw	a5,-36(s0)
   10148:	00179793          	sll	a5,a5,0x1
   1014c:	00011737          	lui	a4,0x11
   10150:	50070713          	add	a4,a4,1280 # 11500 <rom>
   10154:	00379793          	sll	a5,a5,0x3
   10158:	00f707b3          	add	a5,a4,a5
   1015c:	0007a503          	lw	a0,0(a5)
   10160:	0047a583          	lw	a1,4(a5)
   10164:	00a60733          	add	a4,a2,a0
   10168:	00070f13          	mv	t5,a4
   1016c:	00cf3f33          	sltu	t5,t5,a2
   10170:	00b687b3          	add	a5,a3,a1
   10174:	00ff05b3          	add	a1,t5,a5
   10178:	00058793          	mv	a5,a1
   1017c:	fff77593          	and	a1,a4,-1
   10180:	feb42423          	sw	a1,-24(s0)
   10184:	0007f793          	and	a5,a5,0
   10188:	fef42623          	sw	a5,-20(s0)
   1018c:	fe042703          	lw	a4,-32(s0)
   10190:	fe842783          	lw	a5,-24(s0)
   10194:	00f747b3          	xor	a5,a4,a5
   10198:	fcf42823          	sw	a5,-48(s0)
   1019c:	fe842783          	lw	a5,-24(s0)
   101a0:	01f7f793          	and	a5,a5,31
   101a4:	fd042703          	lw	a4,-48(s0)
   101a8:	00f71733          	sll	a4,a4,a5
   101ac:	fe842783          	lw	a5,-24(s0)
   101b0:	01f7f793          	and	a5,a5,31
   101b4:	02000593          	li	a1,32
   101b8:	40f587b3          	sub	a5,a1,a5
   101bc:	fd042583          	lw	a1,-48(s0)
   101c0:	40f5d7b3          	sra	a5,a1,a5
   101c4:	00f767b3          	or	a5,a4,a5
   101c8:	fcf42623          	sw	a5,-52(s0)
   101cc:	fcc42783          	lw	a5,-52(s0)
   101d0:	00078813          	mv	a6,a5
   101d4:	41f7d793          	sra	a5,a5,0x1f
   101d8:	00078893          	mv	a7,a5
   101dc:	fdc42783          	lw	a5,-36(s0)
   101e0:	00179793          	sll	a5,a5,0x1
   101e4:	00178793          	add	a5,a5,1
   101e8:	00011737          	lui	a4,0x11
   101ec:	50070713          	add	a4,a4,1280 # 11500 <rom>
   101f0:	00379793          	sll	a5,a5,0x3
   101f4:	00f707b3          	add	a5,a4,a5
   101f8:	0007a503          	lw	a0,0(a5)
   101fc:	0047a583          	lw	a1,4(a5)
   10200:	00a80733          	add	a4,a6,a0
   10204:	00070f13          	mv	t5,a4
   10208:	010f3f33          	sltu	t5,t5,a6
   1020c:	00b887b3          	add	a5,a7,a1
   10210:	00ff05b3          	add	a1,t5,a5
   10214:	00058793          	mv	a5,a1
   10218:	fff77593          	and	a1,a4,-1
   1021c:	feb42023          	sw	a1,-32(s0)
   10220:	0007f793          	and	a5,a5,0
   10224:	fef42223          	sw	a5,-28(s0)
   10228:	fdc42783          	lw	a5,-36(s0)
   1022c:	00178793          	add	a5,a5,1
   10230:	fcf42e23          	sw	a5,-36(s0)
   10234:	fdc42703          	lw	a4,-36(s0)
   10238:	00c00793          	li	a5,12
   1023c:	eae7dce3          	bge	a5,a4,100f4 <rc5_en+0x60>
   10240:	fe842783          	lw	a5,-24(s0)
   10244:	00079393          	sll	t2,a5,0x0
   10248:	00000313          	li	t1,0
   1024c:	fe042783          	lw	a5,-32(s0)
   10250:	0067ee33          	or	t3,a5,t1
   10254:	fe442783          	lw	a5,-28(s0)
   10258:	0077eeb3          	or	t4,a5,t2
   1025c:	000e0713          	mv	a4,t3
   10260:	000e8793          	mv	a5,t4
   10264:	00070513          	mv	a0,a4
   10268:	00078593          	mv	a1,a5
   1026c:	04c12403          	lw	s0,76(sp)
   10270:	05010113          	add	sp,sp,80
   10274:	00008067          	ret

00010278 <rc5_de>:
   10278:	fa010113          	add	sp,sp,-96
   1027c:	04812e23          	sw	s0,92(sp)
   10280:	05212c23          	sw	s2,88(sp)
   10284:	05312a23          	sw	s3,84(sp)
   10288:	05412823          	sw	s4,80(sp)
   1028c:	05512623          	sw	s5,76(sp)
   10290:	06010413          	add	s0,sp,96
   10294:	faa42423          	sw	a0,-88(s0)
   10298:	fab42623          	sw	a1,-84(s0)
   1029c:	fa842503          	lw	a0,-88(s0)
   102a0:	fac42583          	lw	a1,-84(s0)
   102a4:	0005da13          	srl	s4,a1,0x0
   102a8:	00000a93          	li	s5,0
   102ac:	fd442c23          	sw	s4,-40(s0)
   102b0:	fd542e23          	sw	s5,-36(s0)
   102b4:	fa842583          	lw	a1,-88(s0)
   102b8:	fff5ff13          	and	t5,a1,-1
   102bc:	fac42583          	lw	a1,-84(s0)
   102c0:	0005ff93          	and	t6,a1,0
   102c4:	fde42823          	sw	t5,-48(s0)
   102c8:	fdf42a23          	sw	t6,-44(s0)
   102cc:	fc042423          	sw	zero,-56(s0)
   102d0:	fc042223          	sw	zero,-60(s0)
   102d4:	fc042023          	sw	zero,-64(s0)
   102d8:	fa042e23          	sw	zero,-68(s0)
   102dc:	00c00593          	li	a1,12
   102e0:	fcb42623          	sw	a1,-52(s0)
   102e4:	1340006f          	j	10418 <rc5_de+0x1a0>
   102e8:	fd042f03          	lw	t5,-48(s0)
   102ec:	fcc42583          	lw	a1,-52(s0)
   102f0:	00159593          	sll	a1,a1,0x1
   102f4:	00158593          	add	a1,a1,1
   102f8:	00011537          	lui	a0,0x11
   102fc:	50050513          	add	a0,a0,1280 # 11500 <rom>
   10300:	00359593          	sll	a1,a1,0x3
   10304:	00b505b3          	add	a1,a0,a1
   10308:	0005a503          	lw	a0,0(a1)
   1030c:	0045a583          	lw	a1,4(a1)
   10310:	00050593          	mv	a1,a0
   10314:	40bf05b3          	sub	a1,t5,a1
   10318:	fab42e23          	sw	a1,-68(s0)
   1031c:	fd842583          	lw	a1,-40(s0)
   10320:	01f5f593          	and	a1,a1,31
   10324:	fbc42503          	lw	a0,-68(s0)
   10328:	40b55533          	sra	a0,a0,a1
   1032c:	fd842583          	lw	a1,-40(s0)
   10330:	01f5f593          	and	a1,a1,31
   10334:	02000f13          	li	t5,32
   10338:	40bf05b3          	sub	a1,t5,a1
   1033c:	fbc42f03          	lw	t5,-68(s0)
   10340:	00bf15b3          	sll	a1,t5,a1
   10344:	00b565b3          	or	a1,a0,a1
   10348:	fcb42023          	sw	a1,-64(s0)
   1034c:	fc042583          	lw	a1,-64(s0)
   10350:	00058313          	mv	t1,a1
   10354:	41f5d593          	sra	a1,a1,0x1f
   10358:	00058393          	mv	t2,a1
   1035c:	fd842583          	lw	a1,-40(s0)
   10360:	0065c733          	xor	a4,a1,t1
   10364:	fdc42583          	lw	a1,-36(s0)
   10368:	0075c7b3          	xor	a5,a1,t2
   1036c:	fff77593          	and	a1,a4,-1
   10370:	fcb42823          	sw	a1,-48(s0)
   10374:	0007f593          	and	a1,a5,0
   10378:	fcb42a23          	sw	a1,-44(s0)
   1037c:	fd842f03          	lw	t5,-40(s0)
   10380:	fcc42583          	lw	a1,-52(s0)
   10384:	00159593          	sll	a1,a1,0x1
   10388:	00011537          	lui	a0,0x11
   1038c:	50050513          	add	a0,a0,1280 # 11500 <rom>
   10390:	00359593          	sll	a1,a1,0x3
   10394:	00b505b3          	add	a1,a0,a1
   10398:	0005a503          	lw	a0,0(a1)
   1039c:	0045a583          	lw	a1,4(a1)
   103a0:	00050593          	mv	a1,a0
   103a4:	40bf05b3          	sub	a1,t5,a1
   103a8:	fcb42223          	sw	a1,-60(s0)
   103ac:	fd042583          	lw	a1,-48(s0)
   103b0:	01f5f593          	and	a1,a1,31
   103b4:	fc442503          	lw	a0,-60(s0)
   103b8:	40b55533          	sra	a0,a0,a1
   103bc:	fd042583          	lw	a1,-48(s0)
   103c0:	01f5f593          	and	a1,a1,31
   103c4:	02000f13          	li	t5,32
   103c8:	40bf05b3          	sub	a1,t5,a1
   103cc:	fc442f03          	lw	t5,-60(s0)
   103d0:	00bf15b3          	sll	a1,t5,a1
   103d4:	00b565b3          	or	a1,a0,a1
   103d8:	fcb42423          	sw	a1,-56(s0)
   103dc:	fc842583          	lw	a1,-56(s0)
   103e0:	00058e13          	mv	t3,a1
   103e4:	41f5d593          	sra	a1,a1,0x1f
   103e8:	00058e93          	mv	t4,a1
   103ec:	fd042583          	lw	a1,-48(s0)
   103f0:	01c5c633          	xor	a2,a1,t3
   103f4:	fd442583          	lw	a1,-44(s0)
   103f8:	01d5c6b3          	xor	a3,a1,t4
   103fc:	fff67593          	and	a1,a2,-1
   10400:	fcb42c23          	sw	a1,-40(s0)
   10404:	0006f593          	and	a1,a3,0
   10408:	fcb42e23          	sw	a1,-36(s0)
   1040c:	fcc42583          	lw	a1,-52(s0)
   10410:	fff58593          	add	a1,a1,-1
   10414:	fcb42623          	sw	a1,-52(s0)
   10418:	fcc42583          	lw	a1,-52(s0)
   1041c:	ecb046e3          	bgtz	a1,102e8 <rc5_de+0x70>
   10420:	fd842783          	lw	a5,-40(s0)
   10424:	00079893          	sll	a7,a5,0x0
   10428:	00000813          	li	a6,0
   1042c:	fd042783          	lw	a5,-48(s0)
   10430:	0107e933          	or	s2,a5,a6
   10434:	fd442783          	lw	a5,-44(s0)
   10438:	0117e9b3          	or	s3,a5,a7
   1043c:	00090713          	mv	a4,s2
   10440:	00098793          	mv	a5,s3
   10444:	00070513          	mv	a0,a4
   10448:	00078593          	mv	a1,a5
   1044c:	05c12403          	lw	s0,92(sp)
   10450:	05812903          	lw	s2,88(sp)
   10454:	05412983          	lw	s3,84(sp)
   10458:	05012a03          	lw	s4,80(sp)
   1045c:	04c12a83          	lw	s5,76(sp)
   10460:	06010113          	add	sp,sp,96
   10464:	00008067          	ret

00010468 <main>:
   10468:	fd010113          	add	sp,sp,-48
   1046c:	02112623          	sw	ra,44(sp)
   10470:	02812423          	sw	s0,40(sp)
   10474:	03010413          	add	s0,sp,48
   10478:	000107b7          	lui	a5,0x10
   1047c:	4f87a703          	lw	a4,1272(a5) # 104f8 <main+0x90>
   10480:	4fc7a783          	lw	a5,1276(a5)
   10484:	fee42423          	sw	a4,-24(s0)
   10488:	fef42623          	sw	a5,-20(s0)
   1048c:	fe842503          	lw	a0,-24(s0)
   10490:	fec42583          	lw	a1,-20(s0)
   10494:	00000097          	auipc	ra,0x0
   10498:	c00080e7          	jalr	-1024(ra) # 10094 <rc5_en>
   1049c:	fea42023          	sw	a0,-32(s0)
   104a0:	feb42223          	sw	a1,-28(s0)
   104a4:	fe042503          	lw	a0,-32(s0)
   104a8:	fe442583          	lw	a1,-28(s0)
   104ac:	00000097          	auipc	ra,0x0
   104b0:	dcc080e7          	jalr	-564(ra) # 10278 <rc5_de>
   104b4:	fca42c23          	sw	a0,-40(s0)
   104b8:	fcb42e23          	sw	a1,-36(s0)
   104bc:	fe842703          	lw	a4,-24(s0)
   104c0:	fd842783          	lw	a5,-40(s0)
   104c4:	00f71c63          	bne	a4,a5,104dc <main+0x74>
   104c8:	fec42703          	lw	a4,-20(s0)
   104cc:	fdc42783          	lw	a5,-36(s0)
   104d0:	00f71663          	bne	a4,a5,104dc <main+0x74>
   104d4:	0ff00593          	li	a1,255
   104d8:	0080006f          	j	104e0 <main+0x78>
   104dc:	0aa00593          	li	a1,170
   104e0:	00000793          	li	a5,0
   104e4:	00078513          	mv	a0,a5
   104e8:	02c12083          	lw	ra,44(sp)
   104ec:	02812403          	lw	s0,40(sp)
   104f0:	03010113          	add	sp,sp,48
   104f4:	00008067          	ret
